target datalayout = "e-m:e-p270:32:32-p271:32:32-p272:64:64-i64:64-i128:128-f80:128-n8:16:32:64-S128"
target triple = "x86_64-pc-linux-gnu"

%struct.URLContext = type { ptr, ptr, ptr, ptr, i32, i32, i32, i32, %struct.AVIOInterruptCB, i64, ptr, ptr, i32 }
%struct.AVIOInterruptCB = type { ptr, ptr }
%struct.MMSHContext = type { %struct.MMSContext, [1024 x i8], i32, i32 }
%struct.MMSContext = type { ptr, ptr, ptr, [512 x i8], [65536 x i8], ptr, i32, ptr, i32, i32, i32, i32, i32, i32 }

; Function Attrs: nounwind uwtable
define internal i32 @mmsh_close(ptr noundef %0) #0 {
  %2 = alloca ptr, align 8
  %3 = alloca ptr, align 8
  %4 = alloca ptr, align 8
  store ptr %0, ptr %2, align 8, !tbaa !4
  call void @llvm.lifetime.start.p0(i64 8, ptr %3) #5
  %5 = load ptr, ptr %2, align 8, !tbaa !4
  %6 = getelementptr inbounds nuw %struct.URLContext, ptr %5, i32 0, i32 2
  %7 = load ptr, ptr %6, align 8, !tbaa !13
  store ptr %7, ptr %3, align 8, !tbaa !19
  call void @llvm.lifetime.start.p0(i64 8, ptr %4) #5
  %8 = load ptr, ptr %3, align 8, !tbaa !19
  %9 = getelementptr inbounds nuw %struct.MMSHContext, ptr %8, i32 0, i32 0
  store ptr %9, ptr %4, align 8, !tbaa !21
  %10 = load ptr, ptr %4, align 8, !tbaa !21
  %11 = getelementptr inbounds nuw %struct.MMSContext, ptr %10, i32 0, i32 0
  %12 = call i32 @ffurl_closep(ptr noundef %11)
  %13 = load ptr, ptr %4, align 8, !tbaa !21
  %14 = getelementptr inbounds nuw %struct.MMSContext, ptr %13, i32 0, i32 1
  call void @av_freep(ptr noundef %14)
  %15 = load ptr, ptr %4, align 8, !tbaa !21
  %16 = getelementptr inbounds nuw %struct.MMSContext, ptr %15, i32 0, i32 7
  call void @av_freep(ptr noundef %16)
  call void @llvm.lifetime.end.p0(i64 8, ptr %4) #5
  call void @llvm.lifetime.end.p0(i64 8, ptr %3) #5
  ret i32 0
}

; Function Attrs: nounwind uwtable
define internal i64 @mmsh_read_seek(ptr noundef %0, i32 noundef %1, i64 noundef %2, i32 noundef %3) #0 {
  %5 = alloca i64, align 8
  %6 = alloca ptr, align 8
  %7 = alloca i32, align 4
  %8 = alloca i64, align 8
  %9 = alloca i32, align 4
  %10 = alloca ptr, align 8
  %11 = alloca ptr, align 8
  %12 = alloca ptr, align 8
  %13 = alloca i32, align 4
  %14 = alloca i32, align 4
  store ptr %0, ptr %6, align 8, !tbaa !34
  store i32 %1, ptr %7, align 4, !tbaa !11
  store i64 %2, ptr %8, align 8, !tbaa !30
  store i32 %3, ptr %9, align 4, !tbaa !11
  call void @llvm.lifetime.start.p0(i64 8, ptr %10) #5
  %15 = load ptr, ptr %6, align 8, !tbaa !34
  store ptr %15, ptr %10, align 8, !tbaa !4
  call void @llvm.lifetime.start.p0(i64 8, ptr %11) #5
  %16 = load ptr, ptr %10, align 8, !tbaa !4
  %17 = getelementptr inbounds nuw %struct.URLContext, ptr %16, i32 0, i32 2
  %18 = load ptr, ptr %17, align 8, !tbaa !13
  store ptr %18, ptr %11, align 8, !tbaa !19
  call void @llvm.lifetime.start.p0(i64 8, ptr %12) #5
  %19 = call noalias ptr @av_mallocz(i64 noundef 67152)
  store ptr %19, ptr %12, align 8, !tbaa !19
  call void @llvm.lifetime.start.p0(i64 4, ptr %13) #5
  %20 = load ptr, ptr %12, align 8, !tbaa !19
  %21 = icmp ne ptr %20, null
  br i1 %21, label %23, label %22

22:                                               ; preds = %4
  store i64 -12, ptr %5, align 8
  store i32 1, ptr %14, align 4
  br label %67

23:                                               ; preds = %4
  %24 = load ptr, ptr %12, align 8, !tbaa !19
  %25 = load ptr, ptr %10, align 8, !tbaa !4
  %26 = getelementptr inbounds nuw %struct.URLContext, ptr %25, i32 0, i32 2
  store ptr %24, ptr %26, align 8, !tbaa !13
  %27 = load ptr, ptr %10, align 8, !tbaa !4
  %28 = load ptr, ptr %11, align 8, !tbaa !19
  %29 = getelementptr inbounds nuw %struct.MMSHContext, ptr %28, i32 0, i32 1
  %30 = getelementptr inbounds [1024 x i8], ptr %29, i64 0, i64 0
  %31 = load i64, ptr %8, align 8, !tbaa !30
  %32 = icmp sgt i64 %31, 0
  br i1 %32, label %33, label %35

33:                                               ; preds = %23
  %34 = load i64, ptr %8, align 8, !tbaa !30
  br label %36

35:                                               ; preds = %23
  br label %36

36:                                               ; preds = %35, %33
  %37 = phi i64 [ %34, %33 ], [ 0, %35 ]
  %38 = trunc i64 %37 to i32
  %39 = call i32 @mmsh_open_internal(ptr noundef %27, ptr noundef %30, i32 noundef 0, i32 noundef %38, i64 noundef 0)
  store i32 %39, ptr %13, align 4, !tbaa !11
  %40 = load i32, ptr %13, align 4, !tbaa !11
  %41 = icmp sge i32 %40, 0
  br i1 %41, label %42, label %59

42:                                               ; preds = %36
  %43 = load ptr, ptr %11, align 8, !tbaa !19
  %44 = load ptr, ptr %10, align 8, !tbaa !4
  %45 = getelementptr inbounds nuw %struct.URLContext, ptr %44, i32 0, i32 2
  store ptr %43, ptr %45, align 8, !tbaa !13
  %46 = load ptr, ptr %10, align 8, !tbaa !4
  %47 = call i32 @mmsh_close(ptr noundef %46)
  %48 = load ptr, ptr %12, align 8, !tbaa !19
  %49 = load ptr, ptr %10, align 8, !tbaa !4
  %50 = getelementptr inbounds nuw %struct.URLContext, ptr %49, i32 0, i32 2
  store ptr %48, ptr %50, align 8, !tbaa !13
  %51 = load ptr, ptr %11, align 8, !tbaa !19
  call void @av_free(ptr noundef %51)
  %52 = load ptr, ptr %12, align 8, !tbaa !19
  %53 = getelementptr inbounds nuw %struct.MMSHContext, ptr %52, i32 0, i32 0
  %54 = getelementptr inbounds nuw %struct.MMSContext, ptr %53, i32 0, i32 8
  %55 = load i32, ptr %54, align 8, !tbaa !35
  %56 = load ptr, ptr %12, align 8, !tbaa !19
  %57 = getelementptr inbounds nuw %struct.MMSHContext, ptr %56, i32 0, i32 0
  %58 = getelementptr inbounds nuw %struct.MMSContext, ptr %57, i32 0, i32 11
  store i32 %55, ptr %58, align 4, !tbaa !36
  br label %64

59:                                               ; preds = %36
  %60 = load ptr, ptr %11, align 8, !tbaa !19
  %61 = load ptr, ptr %10, align 8, !tbaa !4
  %62 = getelementptr inbounds nuw %struct.URLContext, ptr %61, i32 0, i32 2
  store ptr %60, ptr %62, align 8, !tbaa !13
  %63 = load ptr, ptr %12, align 8, !tbaa !19
  call void @av_free(ptr noundef %63)
  br label %64

64:                                               ; preds = %59, %42
  %65 = load i32, ptr %13, align 4, !tbaa !11
  %66 = sext i32 %65 to i64
  store i64 %66, ptr %5, align 8
  store i32 1, ptr %14, align 4
  br label %67

67:                                               ; preds = %64, %22
  call void @llvm.lifetime.end.p0(i64 4, ptr %13) #5
  call void @llvm.lifetime.end.p0(i64 8, ptr %12) #5
  call void @llvm.lifetime.end.p0(i64 8, ptr %11) #5
  call void @llvm.lifetime.end.p0(i64 8, ptr %10) #5
  %68 = load i64, ptr %5, align 8
  ret i64 %68
}