; Function Attrs: nounwind uwtable
define internal range(i64 -2147483648, 2147483648) i64 @mmsh_read_seek(ptr noundef %0, i32 %1, i64 noundef %2, i32 %3) #0 {
  %5 = getelementptr inbounds nuw i8, ptr %0, i64 16
  %6 = load ptr, ptr %5, align 8, !tbaa !4
  %7 = tail call noalias ptr @av_mallocz(i64 noundef 67152) #7
  %.not = icmp eq ptr %7, null
  br i1 %.not, label %24, label %8

8:                                                ; preds = %4
  store ptr %7, ptr %5, align 8, !tbaa !4
  %9 = getelementptr inbounds nuw i8, ptr %6, i64 66120
  %10 = tail call i64 @llvm.smax.i64(i64 %2, i64 0)
  %11 = trunc i64 %10 to i32
  %12 = tail call fastcc i32 @mmsh_open_internal(ptr noundef nonnull %0, ptr noundef nonnull %9, i32 noundef %11)
  %13 = icmp sgt i32 %12, -1
  store ptr %6, ptr %5, align 8, !tbaa !4
  br i1 %13, label %14, label %21

14:                                               ; preds = %8
  %15 = tail call i32 @ffurl_closep(ptr noundef nonnull %6) #7
  %16 = getelementptr inbounds nuw i8, ptr %6, i64 8
  tail call void @av_freep(ptr noundef nonnull %16) #7
  %17 = getelementptr inbounds nuw i8, ptr %6, i64 66088
  tail call void @av_freep(ptr noundef nonnull %17) #7
  store ptr %7, ptr %5, align 8, !tbaa !4
  tail call void @av_free(ptr noundef nonnull %6) #7
  %18 = getelementptr inbounds nuw i8, ptr %7, i64 66096
  %19 = load i32, ptr %18, align 8, !tbaa !28
  %20 = getelementptr inbounds nuw i8, ptr %7, i64 66108
  store i32 %19, ptr %20, align 4, !tbaa !29
  br label %22

21:                                               ; preds = %8
  tail call void @av_free(ptr noundef nonnull %7) #7
  br label %22

22:                                               ; preds = %21, %14
  %23 = sext i32 %12 to i64
  br label %24

24:                                               ; preds = %4, %22
  %.0 = phi i64 [ %23, %22 ], [ -12, %4 ]
  ret i64 %.0
}